target datalayout = "e-m:e-p270:32:32-p271:32:32-p272:64:64-i64:64-i128:128-f80:128-n8:16:32:64-S128"
target triple = "x86_64-pc-linux-gnu"

%struct._zend_executor_globals = type { %struct._zval_struct, %struct._zval_struct, [32 x ptr], ptr, ptr, %struct._zend_array, %struct._zend_array, ptr, i32, i8, %struct._zval_struct, i32, ptr, ptr, ptr, ptr, ptr, ptr, i64, ptr, ptr, i32, ptr, i32, i64, i32, i32, i32, i8, i8, %struct.zend_atomic_bool_s, %struct.zend_atomic_bool_s, ptr, i64, ptr, ptr, %struct._zend_array, %struct._zend_array, i32, i8, %struct._zval_struct, %struct._zval_struct, %struct._zend_stack, %struct._zend_stack, %struct._zend_stack, ptr, i32, i32, i64, ptr, ptr, ptr, %struct._zend_objects_store, %struct._zend_lazy_objects_store, ptr, ptr, ptr, [3 x %struct._zend_op], ptr, i8, i8, i64, i32, i32, ptr, [16 x %struct._HashTableIterator], ptr, %union._zend_function, %struct._zend_op, %struct._zend_array, i64, %struct.zend_get_gc_buffer, ptr, ptr, ptr, i64, i8, i32, ptr, ptr, i64, %struct._zend_call_stack, i64, i64, %struct._zend_strtod_state, [6 x ptr] }
%struct.zend_atomic_bool_s = type { i8 }
%struct._zval_struct = type { %union._zend_value, %union.anon, %union.anon.2 }
%union._zend_value = type { i64 }
%union.anon = type { i32 }
%union.anon.2 = type { i32 }
%struct._zend_stack = type { i32, i32, i32, ptr }
%struct._zend_objects_store = type { ptr, i32, i32, i32 }
%struct._zend_lazy_objects_store = type { %struct._zend_array }
%struct._HashTableIterator = type { ptr, i32, i32 }
%union._zend_function = type { %struct._zend_op_array }
%struct._zend_op_array = type { i8, [3 x i8], i32, ptr, ptr, ptr, i32, i32, ptr, ptr, ptr, ptr, i32, ptr, i32, i32, i32, ptr, ptr, ptr, ptr, ptr, i32, i32, ptr, ptr, ptr, i32, i32, i32, i32, ptr, ptr, [6 x ptr] }
%struct._zend_op = type { ptr, %union._znode_op, %union._znode_op, %union._znode_op, i32, i32, i8, i8, i8, i8 }
%union._znode_op = type { i32 }
%struct._zend_array = type { %struct._zend_refcounted_h, %union.anon.4, i32, %union.anon.6, i32, i32, i32, i32, i64, ptr }
%struct._zend_refcounted_h = type { i32, %union.anon.3 }
%union.anon.3 = type { i32 }
%union.anon.4 = type { i32 }
%union.anon.6 = type { ptr }
%struct.zend_get_gc_buffer = type { ptr, ptr, ptr }
%struct._zend_call_stack = type { ptr, i64 }
%struct._zend_strtod_state = type { [8 x ptr], ptr, ptr }
%struct._zend_object_handlers = type { i32, ptr, ptr, ptr, ptr, ptr, ptr, ptr, ptr, ptr, ptr, ptr, ptr, ptr, ptr, ptr, ptr, ptr, ptr, ptr, ptr, ptr, ptr, ptr, ptr }
%struct._zend_execute_data = type { ptr, ptr, ptr, ptr, %struct._zval_struct, ptr, ptr, ptr, ptr }
%struct._phar_archive_data = type { ptr, i32, ptr, i32, ptr, i32, [12 x i8], i64, %struct._zend_array, %struct._zend_array, %struct._zend_array, i32, i32, i32, ptr, ptr, i32, i32, i32, ptr, %struct._phar_metadata_tracker, i32, i16 }
%struct._phar_metadata_tracker = type { %struct._zval_struct, ptr }
%struct._zend_object = type { %struct._zend_refcounted_h, i32, i32, ptr, ptr, ptr, [1 x %struct._zval_struct] }

@executor_globals = external global %struct._zend_executor_globals, align 8
@spl_ce_BadMethodCallException = external global ptr, align 8
@.str.54 = private unnamed_addr constant [4 x i8] c"MD5\00", align 1
@.str.55 = private unnamed_addr constant [6 x i8] c"SHA-1\00", align 1
@.str.56 = private unnamed_addr constant [8 x i8] c"SHA-256\00", align 1
@.str.57 = private unnamed_addr constant [8 x i8] c"SHA-512\00", align 1
@.str.59 = private unnamed_addr constant [8 x i8] c"OpenSSL\00", align 1
@.str.60 = private unnamed_addr constant [15 x i8] c"OpenSSL_SHA256\00", align 1
@.str.61 = private unnamed_addr constant [15 x i8] c"OpenSSL_SHA512\00", align 1
@.str.72 = private unnamed_addr constant [51 x i8] c"Cannot call method on an uninitialized Phar object\00", align 1
@.str.114 = private unnamed_addr constant [5 x i8] c"hash\00", align 1
@.str.115 = private unnamed_addr constant [10 x i8] c"hash_type\00", align 1
@.str.116 = private unnamed_addr constant [13 x i8] c"Unknown (%u)\00", align 1

; Function Attrs: alwaysinline nounwind uwtable
define internal void @add_assoc_str(ptr noundef %0, ptr noundef %1, ptr noundef %2) #4 {
  %4 = alloca ptr, align 8
  %5 = alloca ptr, align 8
  %6 = alloca ptr, align 8
  store ptr %0, ptr %4, align 8, !tbaa !9
  store ptr %1, ptr %5, align 8, !tbaa !49
  store ptr %2, ptr %6, align 8, !tbaa !46
  %7 = load ptr, ptr %4, align 8, !tbaa !9
  %8 = load ptr, ptr %5, align 8, !tbaa !49
  %9 = load ptr, ptr %5, align 8, !tbaa !49
  %10 = call i64 @strlen(ptr noundef %9) #18
  %11 = load ptr, ptr %6, align 8, !tbaa !46
  call void @add_assoc_str_ex(ptr noundef %7, ptr noundef %8, i64 noundef %10, ptr noundef %11)
  ret void
}

; Function Attrs: alwaysinline nounwind uwtable
define internal void @add_assoc_string(ptr noundef %0, ptr noundef %1, ptr noundef %2) #4 {
  %4 = alloca ptr, align 8
  %5 = alloca ptr, align 8
  %6 = alloca ptr, align 8
  store ptr %0, ptr %4, align 8, !tbaa !9
  store ptr %1, ptr %5, align 8, !tbaa !49
  store ptr %2, ptr %6, align 8, !tbaa !49
  %7 = load ptr, ptr %4, align 8, !tbaa !9
  %8 = load ptr, ptr %5, align 8, !tbaa !49
  %9 = load ptr, ptr %5, align 8, !tbaa !49
  %10 = call i64 @strlen(ptr noundef %9) #18
  %11 = load ptr, ptr %6, align 8, !tbaa !49
  call void @add_assoc_string_ex(ptr noundef %7, ptr noundef %8, i64 noundef %10, ptr noundef %11)
  ret void
}

; Function Attrs: alwaysinline nounwind uwtable
define internal void @add_assoc_stringl(ptr noundef %0, ptr noundef %1, ptr noundef %2, i64 noundef %3) #4 {
  %5 = alloca ptr, align 8
  %6 = alloca ptr, align 8
  %7 = alloca ptr, align 8
  %8 = alloca i64, align 8
  store ptr %0, ptr %5, align 8, !tbaa !9
  store ptr %1, ptr %6, align 8, !tbaa !49
  store ptr %2, ptr %7, align 8, !tbaa !49
  store i64 %3, ptr %8, align 8, !tbaa !52
  %9 = load ptr, ptr %5, align 8, !tbaa !9
  %10 = load ptr, ptr %6, align 8, !tbaa !49
  %11 = load ptr, ptr %6, align 8, !tbaa !49
  %12 = call i64 @strlen(ptr noundef %11) #18
  %13 = load ptr, ptr %7, align 8, !tbaa !49
  %14 = load i64, ptr %8, align 8, !tbaa !52
  call void @add_assoc_stringl_ex(ptr noundef %9, ptr noundef %10, i64 noundef %12, ptr noundef %13, i64 noundef %14)
  ret void
}

; Function Attrs: nounwind uwtable
define hidden void @zim_Phar_getSignature(ptr noundef %0, ptr noundef %1) #0 {
  %3 = alloca ptr, align 8
  %4 = alloca ptr, align 8
  %5 = alloca ptr, align 8
  %6 = alloca ptr, align 8
  %7 = alloca i32, align 4
  %8 = alloca ptr, align 8
  %9 = alloca ptr, align 8
  %10 = alloca ptr, align 8
  store ptr %0, ptr %3, align 8, !tbaa !4
  store ptr %1, ptr %4, align 8, !tbaa !9
  %11 = load ptr, ptr %3, align 8, !tbaa !4
  %12 = getelementptr inbounds nuw %struct._zend_execute_data, ptr %11, i32 0, i32 4
  %13 = getelementptr inbounds nuw %struct._zval_struct, ptr %12, i32 0, i32 2
  %14 = load i32, ptr %13, align 4, !tbaa !13
  %15 = icmp eq i32 %14, 0
  %16 = xor i1 %15, true
  %17 = xor i1 %16, true
  %18 = zext i1 %17 to i32
  %19 = sext i32 %18 to i64
  %20 = call i64 @llvm.expect.i64(i64 %19, i64 1)
  %21 = icmp ne i64 %20, 0
  br i1 %21, label %22, label %23

22:                                               ; preds = %2
  br label %24

23:                                               ; preds = %2
  call void @zend_wrong_parameters_none_error()
  br label %24

24:                                               ; preds = %23, %22
  %25 = phi i32 [ 0, %22 ], [ -1, %23 ]
  %26 = icmp eq i32 %25, -1
  br i1 %26, label %27, label %32

27:                                               ; preds = %24
  br label %28

28:                                               ; preds = %27
  %29 = load ptr, ptr getelementptr inbounds nuw (%struct._zend_executor_globals, ptr @executor_globals, i32 0, i32 54), align 8, !tbaa !14
  %30 = icmp ne ptr %29, null
  call void @llvm.assume(i1 %30)
  br label %125

31:                                               ; No predecessors!
  br label %32

32:                                               ; preds = %31, %24
  call void @llvm.lifetime.start.p0(i64 8, ptr %5) #17
  %33 = load ptr, ptr %3, align 8, !tbaa !4
  %34 = getelementptr inbounds nuw %struct._zend_execute_data, ptr %33, i32 0, i32 4
  store ptr %34, ptr %5, align 8, !tbaa !9
  call void @llvm.lifetime.start.p0(i64 8, ptr %6) #17
  %35 = load ptr, ptr %5, align 8, !tbaa !9
  %36 = getelementptr inbounds nuw %struct._zval_struct, ptr %35, i32 0, i32 0
  %37 = load ptr, ptr %36, align 8, !tbaa !13
  %38 = load ptr, ptr %5, align 8, !tbaa !9
  %39 = getelementptr inbounds nuw %struct._zval_struct, ptr %38, i32 0, i32 0
  %40 = load ptr, ptr %39, align 8, !tbaa !13
  %41 = getelementptr inbounds nuw %struct._zend_object, ptr %40, i32 0, i32 4
  %42 = load ptr, ptr %41, align 8, !tbaa !118
  %43 = getelementptr inbounds nuw %struct._zend_object_handlers, ptr %42, i32 0, i32 0
  %44 = load i32, ptr %43, align 8, !tbaa !121
  %45 = sext i32 %44 to i64
  %46 = sub i64 0, %45
  %47 = getelementptr inbounds i8, ptr %37, i64 %46
  store ptr %47, ptr %6, align 8, !tbaa !123
  %48 = load ptr, ptr %6, align 8, !tbaa !123
  %49 = load ptr, ptr %48, align 8, !tbaa !13
  %50 = icmp ne ptr %49, null
  br i1 %50, label %59, label %51

51:                                               ; preds = %32
  %52 = load ptr, ptr @spl_ce_BadMethodCallException, align 8, !tbaa !53
  %53 = call ptr (ptr, i64, ptr, ...) @zend_throw_exception_ex(ptr noundef %52, i64 noundef 0, ptr noundef @.str.72)
  br label %54

54:                                               ; preds = %51
  %55 = load ptr, ptr getelementptr inbounds nuw (%struct._zend_executor_globals, ptr @executor_globals, i32 0, i32 54), align 8, !tbaa !14
  %56 = icmp ne ptr %55, null
  call void @llvm.assume(i1 %56)
  store i32 1, ptr %7, align 4
  br label %123

57:                                               ; No predecessors!
  br label %58

58:                                               ; preds = %57
  br label %59

59:                                               ; preds = %58, %32
  %60 = load ptr, ptr %6, align 8, !tbaa !123
  %61 = load ptr, ptr %60, align 8, !tbaa !13
  %62 = getelementptr inbounds nuw %struct._phar_archive_data, ptr %61, i32 0, i32 19
  %63 = load ptr, ptr %62, align 8, !tbaa !201
  %64 = icmp ne ptr %63, null
  br i1 %64, label %65, label %113

65:                                               ; preds = %59
  call void @llvm.lifetime.start.p0(i64 8, ptr %8) #17
  br label %66

66:                                               ; preds = %65
  call void @llvm.lifetime.start.p0(i64 8, ptr %9) #17
  %67 = call ptr @_zend_new_array_0()
  store ptr %67, ptr %9, align 8, !tbaa !59
  call void @llvm.lifetime.start.p0(i64 8, ptr %10) #17
  %68 = load ptr, ptr %4, align 8, !tbaa !9
  store ptr %68, ptr %10, align 8, !tbaa !9
  %69 = load ptr, ptr %9, align 8, !tbaa !59
  %70 = load ptr, ptr %10, align 8, !tbaa !9
  %71 = getelementptr inbounds nuw %struct._zval_struct, ptr %70, i32 0, i32 0
  store ptr %69, ptr %71, align 8, !tbaa !13
  %72 = load ptr, ptr %10, align 8, !tbaa !9
  %73 = getelementptr inbounds nuw %struct._zval_struct, ptr %72, i32 0, i32 1
  store i32 775, ptr %73, align 8, !tbaa !13
  call void @llvm.lifetime.end.p0(i64 8, ptr %10) #17
  call void @llvm.lifetime.end.p0(i64 8, ptr %9) #17
  br label %74

74:                                               ; preds = %66
  br label %75

75:                                               ; preds = %74
  %76 = load ptr, ptr %4, align 8, !tbaa !9
  %77 = load ptr, ptr %6, align 8, !tbaa !123
  %78 = load ptr, ptr %77, align 8, !tbaa !13
  %79 = getelementptr inbounds nuw %struct._phar_archive_data, ptr %78, i32 0, i32 19
  %80 = load ptr, ptr %79, align 8, !tbaa !201
  %81 = load ptr, ptr %6, align 8, !tbaa !123
  %82 = load ptr, ptr %81, align 8, !tbaa !13
  %83 = getelementptr inbounds nuw %struct._phar_archive_data, ptr %82, i32 0, i32 18
  %84 = load i32, ptr %83, align 8, !tbaa !202
  %85 = zext i32 %84 to i64
  call void @add_assoc_stringl(ptr noundef %76, ptr noundef @.str.114, ptr noundef %80, i64 noundef %85)
  %86 = load ptr, ptr %6, align 8, !tbaa !123
  %87 = load ptr, ptr %86, align 8, !tbaa !13
  %88 = getelementptr inbounds nuw %struct._phar_archive_data, ptr %87, i32 0, i32 17
  %89 = load i32, ptr %88, align 4, !tbaa !198
  switch i32 %89, label %104 [
    i32 1, label %90
    i32 2, label %92
    i32 3, label %94
    i32 4, label %96
    i32 16, label %98
    i32 17, label %100
    i32 18, label %102
  ]

90:                                               ; preds = %75
  %91 = load ptr, ptr %4, align 8, !tbaa !9
  call void @add_assoc_string(ptr noundef %91, ptr noundef @.str.115, ptr noundef @.str.54)
  br label %112

92:                                               ; preds = %75
  %93 = load ptr, ptr %4, align 8, !tbaa !9
  call void @add_assoc_string(ptr noundef %93, ptr noundef @.str.115, ptr noundef @.str.55)
  br label %112

94:                                               ; preds = %75
  %95 = load ptr, ptr %4, align 8, !tbaa !9
  call void @add_assoc_string(ptr noundef %95, ptr noundef @.str.115, ptr noundef @.str.56)
  br label %112

96:                                               ; preds = %75
  %97 = load ptr, ptr %4, align 8, !tbaa !9
  call void @add_assoc_string(ptr noundef %97, ptr noundef @.str.115, ptr noundef @.str.57)
  br label %112

98:                                               ; preds = %75
  %99 = load ptr, ptr %4, align 8, !tbaa !9
  call void @add_assoc_string(ptr noundef %99, ptr noundef @.str.115, ptr noundef @.str.59)
  br label %112

100:                                              ; preds = %75
  %101 = load ptr, ptr %4, align 8, !tbaa !9
  call void @add_assoc_string(ptr noundef %101, ptr noundef @.str.115, ptr noundef @.str.60)
  br label %112

102:                                              ; preds = %75
  %103 = load ptr, ptr %4, align 8, !tbaa !9
  call void @add_assoc_string(ptr noundef %103, ptr noundef @.str.115, ptr noundef @.str.61)
  br label %112

104:                                              ; preds = %75
  %105 = load ptr, ptr %6, align 8, !tbaa !123
  %106 = load ptr, ptr %105, align 8, !tbaa !13
  %107 = getelementptr inbounds nuw %struct._phar_archive_data, ptr %106, i32 0, i32 17
  %108 = load i32, ptr %107, align 4, !tbaa !198
  %109 = call ptr (i64, ptr, ...) @zend_strpprintf(i64 noundef 0, ptr noundef @.str.116, i32 noundef %108)
  store ptr %109, ptr %8, align 8, !tbaa !46
  %110 = load ptr, ptr %4, align 8, !tbaa !9
  %111 = load ptr, ptr %8, align 8, !tbaa !46
  call void @add_assoc_str(ptr noundef %110, ptr noundef @.str.115, ptr noundef %111)
  br label %112

112:                                              ; preds = %104, %102, %100, %98, %96, %94, %92, %90
  call void @llvm.lifetime.end.p0(i64 8, ptr %8) #17
  br label %122

113:                                              ; preds = %59
  br label %114

114:                                              ; preds = %113
  br label %115

115:                                              ; preds = %114
  %116 = load ptr, ptr %4, align 8, !tbaa !9
  %117 = getelementptr inbounds nuw %struct._zval_struct, ptr %116, i32 0, i32 1
  store i32 2, ptr %117, align 8, !tbaa !13
  br label %118

118:                                              ; preds = %115
  br label %119

119:                                              ; preds = %118
  store i32 1, ptr %7, align 4
  br label %123

120:                                              ; No predecessors!
  br label %121

121:                                              ; preds = %120
  br label %122

122:                                              ; preds = %121, %112
  store i32 0, ptr %7, align 4
  br label %123

123:                                              ; preds = %122, %119, %54
  call void @llvm.lifetime.end.p0(i64 8, ptr %6) #17
  call void @llvm.lifetime.end.p0(i64 8, ptr %5) #17
  %124 = load i32, ptr %7, align 4
  switch i32 %124, label %126 [
    i32 0, label %125
    i32 1, label %125
  ]

125:                                              ; preds = %28, %123, %123
  ret void

126:                                              ; preds = %123
  unreachable
}