; Function Attrs: nounwind uwtable
define hidden void @zim_Phar_getSignature(ptr noundef readonly captures(none) %0, ptr noundef %1) #0 {
  %3 = getelementptr inbounds nuw i8, ptr %0, i64 44
  %4 = load i32, ptr %3, align 4, !tbaa !8
  %.not = icmp eq i32 %4, 0
  br i1 %.not, label %.critedge, label %5, !prof !105

5:                                                ; preds = %2
  tail call void @zend_wrong_parameters_none_error() #20
  %6 = load ptr, ptr getelementptr inbounds nuw (i8, ptr @executor_globals, i64 960), align 8, !tbaa !9
  %7 = icmp ne ptr %6, null
  tail call void @llvm.assume(i1 %7)
  br label %48

.critedge:                                        ; preds = %2
  %8 = getelementptr inbounds nuw i8, ptr %0, i64 32
  %9 = load ptr, ptr %8, align 8, !tbaa !8
  %10 = getelementptr inbounds nuw i8, ptr %9, i64 24
  %11 = load ptr, ptr %10, align 8, !tbaa !109
  %12 = load i32, ptr %11, align 8, !tbaa !112
  %13 = sext i32 %12 to i64
  %14 = sub nsw i64 0, %13
  %15 = getelementptr inbounds i8, ptr %9, i64 %14
  %16 = load ptr, ptr %15, align 8, !tbaa !8
  %.not25 = icmp eq ptr %16, null
  br i1 %.not25, label %17, label %22

17:                                               ; preds = %.critedge
  %18 = load ptr, ptr @spl_ce_BadMethodCallException, align 8, !tbaa !54
  %19 = tail call ptr (ptr, i64, ptr, ...) @zend_throw_exception_ex(ptr noundef %18, i64 noundef 0, ptr noundef nonnull @.str.72) #20
  %20 = load ptr, ptr getelementptr inbounds nuw (i8, ptr @executor_globals, i64 960), align 8, !tbaa !9
  %21 = icmp ne ptr %20, null
  tail call void @llvm.assume(i1 %21)
  br label %48

22:                                               ; preds = %.critedge
  %23 = getelementptr inbounds nuw i8, ptr %16, i64 280
  %24 = load ptr, ptr %23, align 8, !tbaa !186
  %.not26 = icmp eq ptr %24, null
  br i1 %.not26, label %46, label %25

25:                                               ; preds = %22
  %26 = tail call ptr @_zend_new_array_0() #20
  store ptr %26, ptr %1, align 8, !tbaa !8
  %27 = getelementptr inbounds nuw i8, ptr %1, i64 8
  store i32 775, ptr %27, align 8, !tbaa !8
  %28 = load ptr, ptr %15, align 8, !tbaa !8
  %29 = getelementptr inbounds nuw i8, ptr %28, i64 280
  %30 = load ptr, ptr %29, align 8, !tbaa !186
  %31 = getelementptr inbounds nuw i8, ptr %28, i64 272
  %32 = load i32, ptr %31, align 8, !tbaa !187
  %33 = zext i32 %32 to i64
  tail call void @add_assoc_stringl_ex(ptr noundef nonnull %1, ptr noundef nonnull @.str.114, i64 noundef 4, ptr noundef %30, i64 noundef range(i64 0, 4294967296) %33) #20
  %34 = load ptr, ptr %15, align 8, !tbaa !8
  %35 = getelementptr inbounds nuw i8, ptr %34, i64 268
  %36 = load i32, ptr %35, align 4, !tbaa !183
  switch i32 %36, label %44 [
    i32 1, label %37
    i32 2, label %38
    i32 3, label %39
    i32 4, label %40
    i32 16, label %41
    i32 17, label %42
    i32 18, label %43
  ]

37:                                               ; preds = %25
  tail call void @add_assoc_string_ex(ptr noundef nonnull %1, ptr noundef nonnull @.str.115, i64 noundef 9, ptr noundef nonnull @.str.54) #20
  br label %48

38:                                               ; preds = %25
  tail call void @add_assoc_string_ex(ptr noundef nonnull %1, ptr noundef nonnull @.str.115, i64 noundef 9, ptr noundef nonnull @.str.55) #20
  br label %48

39:                                               ; preds = %25
  tail call void @add_assoc_string_ex(ptr noundef nonnull %1, ptr noundef nonnull @.str.115, i64 noundef 9, ptr noundef nonnull @.str.56) #20
  br label %48

40:                                               ; preds = %25
  tail call void @add_assoc_string_ex(ptr noundef nonnull %1, ptr noundef nonnull @.str.115, i64 noundef 9, ptr noundef nonnull @.str.57) #20
  br label %48

41:                                               ; preds = %25
  tail call void @add_assoc_string_ex(ptr noundef nonnull %1, ptr noundef nonnull @.str.115, i64 noundef 9, ptr noundef nonnull @.str.59) #20
  br label %48

42:                                               ; preds = %25
  tail call void @add_assoc_string_ex(ptr noundef nonnull %1, ptr noundef nonnull @.str.115, i64 noundef 9, ptr noundef nonnull @.str.60) #20
  br label %48

43:                                               ; preds = %25
  tail call void @add_assoc_string_ex(ptr noundef nonnull %1, ptr noundef nonnull @.str.115, i64 noundef 9, ptr noundef nonnull @.str.61) #20
  br label %48

44:                                               ; preds = %25
  %45 = tail call ptr (i64, ptr, ...) @zend_strpprintf(i64 noundef 0, ptr noundef nonnull @.str.116, i32 noundef %36) #20
  tail call void @add_assoc_str_ex(ptr noundef nonnull %1, ptr noundef nonnull @.str.115, i64 noundef 9, ptr noundef %45) #20
  br label %48

46:                                               ; preds = %22
  %47 = getelementptr inbounds nuw i8, ptr %1, i64 8
  store i32 2, ptr %47, align 8, !tbaa !8
  br label %48

48:                                               ; preds = %17, %46, %44, %43, %42, %41, %40, %39, %38, %37, %5
  ret void
}